; Function Attrs: nounwind uwtable
define internal fastcc ptr @_init_l_Lean_Elab_Tactic_BVDecide_Frontend_Normalize_bv__equal__const__not_x27___lambda__1___closed__2() unnamed_addr #0 {
  %1 = load ptr, ptr @l_Lean_Elab_Tactic_BVDecide_Frontend_Normalize_bv__and___lambda__3___closed__2, align 8, !tbaa !4
  %2 = load ptr, ptr @l_Lean_Elab_Tactic_BVDecide_Frontend_Normalize_bv__and___lambda__3___closed__3, align 8, !tbaa !4
  %3 = load ptr, ptr @l_Lean_Elab_Tactic_BVDecide_Frontend_Normalize_bv__and___lambda__3___closed__4, align 8, !tbaa !4
  %4 = load ptr, ptr @l___private_Lean_Elab_Tactic_BVDecide_Frontend_Normalize_Simproc_0____regBuiltin_Lean_Elab_Tactic_BVDecide_Frontend_Normalize_bv__and_declare__9____x40_Lean_Elab_Tactic_BVDecide_Frontend_Normalize_Simproc___hyg_656____closed__3, align 8, !tbaa !4
  %5 = load ptr, ptr @l_Lean_Elab_Tactic_BVDecide_Frontend_Normalize_bv__and___lambda__3___closed__5, align 8, !tbaa !4
  %6 = load ptr, ptr @l_Lean_Elab_Tactic_BVDecide_Frontend_Normalize_bv__and___lambda__3___closed__6, align 8, !tbaa !4
  %7 = load ptr, ptr @l_Lean_Elab_Tactic_BVDecide_Frontend_Normalize_bv__equal__const__not_x27___lambda__1___closed__1, align 8, !tbaa !4
  %8 = tail call ptr @l_Lean_Name_mkStr7(ptr noundef %1, ptr noundef %2, ptr noundef %3, ptr noundef %4, ptr noundef %5, ptr noundef %6, ptr noundef %7) #5
  ret ptr %8
}